; Function Attrs: nounwind uwtable
define i32 @Gia_ManSifDeriveMapping(ptr noundef %0, ptr noundef readonly captures(none) %1, ptr readnone captures(none) %2, i32 noundef %3, i32 %4, i32 %5) local_unnamed_addr #0 {
  %7 = getelementptr inbounds nuw i8, ptr %0, i64 264
  %8 = load ptr, ptr %7, align 8, !tbaa !38
  %.not = icmp eq ptr %8, null
  br i1 %.not, label %Vec_IntFreeP.exit, label %9

9:                                                ; preds = %6
  %puts = tail call i32 @puts(ptr nonnull dereferenceable(1) @str.1)
  %10 = load ptr, ptr %7, align 8, !tbaa !57
  %11 = icmp eq ptr %10, null
  br i1 %11, label %Vec_IntFreeP.exit, label %12

12:                                               ; preds = %9
  %13 = getelementptr inbounds nuw i8, ptr %10, i64 8
  %14 = load ptr, ptr %13, align 8, !tbaa !39
  %.not.i = icmp eq ptr %14, null
  br i1 %.not.i, label %17, label %.thread.i

.thread.i:                                        ; preds = %12
  tail call void @free(ptr noundef nonnull %14) #24
  %15 = load ptr, ptr %7, align 8, !tbaa !57
  %16 = getelementptr inbounds nuw i8, ptr %15, i64 8
  store ptr null, ptr %16, align 8, !tbaa !39
  br label %17

17:                                               ; preds = %.thread.i, %12
  %18 = phi ptr [ %15, %.thread.i ], [ %10, %12 ]
  tail call void @free(ptr noundef nonnull %18) #24
  store ptr null, ptr %7, align 8, !tbaa !57
  br label %Vec_IntFreeP.exit

Vec_IntFreeP.exit:                                ; preds = %17, %9, %6
  %19 = getelementptr i8, ptr %0, i64 24
  %.val18 = load i32, ptr %19, align 8, !tbaa !44
  %20 = tail call noalias dereferenceable_or_null(16) ptr @malloc(i64 noundef 16) #25
  %21 = add i32 %.val18, -1
  %or.cond.i.i = icmp ult i32 %21, 15
  %spec.store.select.i.i = select i1 %or.cond.i.i, i32 16, i32 %.val18
  %22 = getelementptr inbounds nuw i8, ptr %20, i64 4
  store i32 %spec.store.select.i.i, ptr %20, align 8, !tbaa !43
  %.not.i.i = icmp eq i32 %spec.store.select.i.i, 0
  br i1 %.not.i.i, label %Vec_IntAlloc.exit.thread.i, label %Vec_IntAlloc.exit.i

Vec_IntAlloc.exit.thread.i:                       ; preds = %Vec_IntFreeP.exit
  %23 = getelementptr inbounds nuw i8, ptr %20, i64 8
  store ptr null, ptr %23, align 8, !tbaa !39
  store i32 %.val18, ptr %22, align 4, !tbaa !42
  br label %Vec_IntStart.exit

Vec_IntAlloc.exit.i:                              ; preds = %Vec_IntFreeP.exit
  %24 = sext i32 %spec.store.select.i.i to i64
  %25 = shl nsw i64 %24, 2
  %26 = tail call noalias ptr @malloc(i64 noundef %25) #25
  %27 = getelementptr inbounds nuw i8, ptr %20, i64 8
  store ptr %26, ptr %27, align 8, !tbaa !39
  store i32 %.val18, ptr %22, align 4, !tbaa !42
  %.not.i21 = icmp eq ptr %26, null
  br i1 %.not.i21, label %Vec_IntStart.exit, label %28

28:                                               ; preds = %Vec_IntAlloc.exit.i
  %29 = sext i32 %.val18 to i64
  %30 = shl nsw i64 %29, 2
  tail call void @llvm.memset.p0.i64(ptr nonnull align 4 %26, i8 0, i64 %30, i1 false)
  br label %Vec_IntStart.exit

Vec_IntStart.exit:                                ; preds = %Vec_IntAlloc.exit.thread.i, %Vec_IntAlloc.exit.i, %28
  store ptr %20, ptr %7, align 8, !tbaa !38
  tail call void @Gia_ManIncrementTravId(ptr noundef nonnull %0) #24
  %31 = getelementptr i8, ptr %0, i64 32
  %32 = getelementptr inbounds nuw i8, ptr %0, i64 72
  %33 = load ptr, ptr %32, align 8, !tbaa !52
  %34 = getelementptr i8, ptr %33, i64 4
  %.val22 = load i32, ptr %34, align 4, !tbaa !42
  %35 = icmp sgt i32 %.val22, 0
  br i1 %35, label %.lr.ph, label %.critedge

.lr.ph:                                           ; preds = %Vec_IntStart.exit
  %36 = add nsw i32 %3, 1
  br label %37

37:                                               ; preds = %.lr.ph, %39
  %indvars.iv = phi i64 [ 0, %.lr.ph ], [ %indvars.iv.next, %39 ]
  %38 = phi ptr [ %33, %.lr.ph ], [ %51, %39 ]
  %.024 = phi i32 [ 0, %.lr.ph ], [ %50, %39 ]
  %.val19 = load ptr, ptr %31, align 8, !tbaa !28
  %.not17 = icmp eq ptr %.val19, null
  br i1 %.not17, label %.critedge, label %39

39:                                               ; preds = %37
  %40 = getelementptr i8, ptr %38, i64 8
  %.val20.val = load ptr, ptr %40, align 8, !tbaa !39
  %41 = getelementptr inbounds nuw i32, ptr %.val20.val, i64 %indvars.iv
  %42 = load i32, ptr %41, align 4, !tbaa !29
  %43 = sext i32 %42 to i64
  %44 = getelementptr inbounds %struct.Gia_Obj_t_, ptr %.val19, i64 %43
  %45 = load i64, ptr %44, align 4
  %46 = and i64 %45, 536870911
  %47 = sub nsw i64 0, %46
  %48 = getelementptr inbounds %struct.Gia_Obj_t_, ptr %44, i64 %47
  %49 = tail call i32 @Gia_ManSifDeriveMapping_rec(ptr noundef nonnull %0, ptr noundef nonnull %48, ptr noundef %1, i32 noundef %36)
  %50 = add nsw i32 %49, %.024
  %indvars.iv.next = add nuw nsw i64 %indvars.iv, 1
  %51 = load ptr, ptr %32, align 8, !tbaa !52
  %52 = getelementptr i8, ptr %51, i64 4
  %.val = load i32, ptr %52, align 4, !tbaa !42
  %53 = sext i32 %.val to i64
  %54 = icmp slt i64 %indvars.iv.next, %53
  br i1 %54, label %37, label %.critedge, !llvm.loop !132

.critedge:                                        ; preds = %37, %39, %Vec_IntStart.exit
  %.0.lcssa = phi i32 [ 0, %Vec_IntStart.exit ], [ %50, %39 ], [ %.024, %37 ]
  ret i32 %.0.lcssa
}